target datalayout = "e-m:e-p270:32:32-p271:32:32-p272:64:64-i64:64-i128:128-f80:128-n8:16:32:64-S128"
target triple = "x86_64-pc-linux-gnu"

%struct._object = type { i64, ptr }
%struct._longobject = type { %struct.PyVarObject, [1 x i32] }
%struct.PyVarObject = type { %struct._object, i64 }
%"class.nanobind::handle" = type { ptr }
%class.anon.55 = type { i8 }
%"struct.nanobind::detail::tuple.57" = type { %"struct.nanobind::detail::tuple.58", %"struct.nanobind::detail::type_caster.60" }
%"struct.nanobind::detail::tuple.58" = type { %"struct.nanobind::detail::type_caster.59" }
%"struct.nanobind::detail::type_caster.59" = type { i8 }
%"struct.nanobind::detail::type_caster.60" = type { %"struct.nanobind::detail::type_caster_base.61" }
%"struct.nanobind::detail::type_caster_base.61" = type { ptr }

@_Py_NoneStruct = external global %struct._object, align 8
@_Py_TrueStruct = external global %struct._longobject, align 8
@_Py_FalseStruct = external global %struct._longobject, align 8
@_ZTIZL29nanobind_init_test_typing_extRN8nanobind7module_EE15CustomSignature = internal constant { ptr, ptr } { ptr getelementptr inbounds (ptr, ptr @_ZTVN10__cxxabiv117__class_type_infoE, i64 2), ptr @_ZTSZL29nanobind_init_test_typing_extRN8nanobind7module_EE15CustomSignature }, align 8

; Function Attrs: alwaysinline mustprogress nounwind optsize uwtable
define linkonce_odr hidden noundef nonnull align 1 dereferenceable(1) ptr @_ZN8nanobind6detail5tupleIJNS0_11type_casterIbiEEEE3getILm0EEERDav(ptr noundef nonnull align 1 dereferenceable(1) %0) #5 comdat align 2 {
  %2 = alloca ptr, align 8
  store ptr %0, ptr %2, align 8, !tbaa !235
  %3 = load ptr, ptr %2, align 8
  %4 = getelementptr inbounds nuw %"struct.nanobind::detail::tuple.58", ptr %3, i32 0, i32 0
  ret ptr %4
}

; Function Attrs: alwaysinline mustprogress nounwind optsize uwtable
define linkonce_odr hidden noundef ptr @_ZNK8nanobind6handle3ptrEv(ptr noundef nonnull align 8 dereferenceable(8) %0) #5 comdat align 2 {
  %2 = alloca ptr, align 8
  store ptr %0, ptr %2, align 8, !tbaa !12
  %3 = load ptr, ptr %2, align 8
  %4 = getelementptr inbounds nuw %"class.nanobind::handle", ptr %3, i32 0, i32 0
  %5 = load ptr, ptr %4, align 8, !tbaa !14
  ret ptr %5
}

; Function Attrs: inlinehint mustprogress nounwind optsize uwtable
define internal void @_ZL10_Py_INCREFP7_object(ptr noundef %0) #11 {
  %2 = alloca ptr, align 8
  store ptr %0, ptr %2, align 8, !tbaa !3
  %3 = load ptr, ptr %2, align 8, !tbaa !3
  %4 = getelementptr inbounds nuw %struct._object, ptr %3, i32 0, i32 0
  %5 = load i64, ptr %4, align 8, !tbaa !26
  %6 = add nsw i64 %5, 1
  store i64 %6, ptr %4, align 8, !tbaa !26
  ret void
}

; Function Attrs: inlinehint mustprogress nounwind optsize uwtable
define internal void @"_ZZL29nanobind_init_test_typing_extRN8nanobind7module_EENK3$_4clERZL29nanobind_init_test_typing_extS1_E15CustomSignatureb"(ptr noundef nonnull align 1 dereferenceable(1) %0, ptr noundef nonnull align 4 dereferenceable(4) %1, i1 noundef zeroext %2) #11 align 2 {
  %4 = alloca ptr, align 8
  %5 = alloca ptr, align 8
  %6 = alloca i8, align 1
  store ptr %0, ptr %4, align 8, !tbaa !30
  store ptr %1, ptr %5, align 8, !tbaa !231
  %7 = zext i1 %2 to i8
  store i8 %7, ptr %6, align 1, !tbaa !18
  ret void
}

; Function Attrs: mustprogress nounwind optsize uwtable
define linkonce_odr hidden noundef nonnull align 1 dereferenceable(1) ptr @_ZN8nanobind6detail11type_casterIbiEcvObEv(ptr noundef nonnull align 1 dereferenceable(1) %0) #8 comdat align 2 {
  %2 = alloca ptr, align 8
  store ptr %0, ptr %2, align 8, !tbaa !227
  %3 = load ptr, ptr %2, align 8
  %4 = getelementptr inbounds nuw %"struct.nanobind::detail::type_caster.59", ptr %3, i32 0, i32 0
  ret ptr %4
}

; Function Attrs: mustprogress optsize uwtable
define internal noundef nonnull align 4 dereferenceable(4) ptr @_ZN8nanobind6detail16type_caster_baseIZL29nanobind_init_test_typing_extRNS_7module_EE15CustomSignatureEcvRS4_Ev(ptr noundef nonnull align 8 dereferenceable(8) %0) #0 align 2 {
  %2 = alloca ptr, align 8
  store ptr %0, ptr %2, align 8, !tbaa !225
  %3 = load ptr, ptr %2, align 8
  %4 = getelementptr inbounds nuw %"struct.nanobind::detail::type_caster_base.61", ptr %3, i32 0, i32 0
  %5 = load ptr, ptr %4, align 8, !tbaa !233
  call void @_ZN8nanobind6detail27raise_next_overload_if_nullEPv(ptr noundef %5) #13
  %6 = getelementptr inbounds nuw %"struct.nanobind::detail::type_caster_base.61", ptr %3, i32 0, i32 0
  %7 = load ptr, ptr %6, align 8, !tbaa !233
  ret ptr %7
}

; Function Attrs: mustprogress nounwind optsize uwtable
define linkonce_odr hidden noundef zeroext i1 @_ZN8nanobind6detail11type_casterIbiE11from_pythonENS_6handleEhPNS0_12cleanup_listE(ptr noundef nonnull align 1 dereferenceable(1) %0, ptr %1, i8 noundef zeroext %2, ptr noundef %3) #8 comdat align 2 {
  %5 = alloca i1, align 1
  %6 = alloca %"class.nanobind::handle", align 8
  %7 = alloca ptr, align 8
  %8 = alloca i8, align 1
  %9 = alloca ptr, align 8
  %10 = getelementptr inbounds nuw %"class.nanobind::handle", ptr %6, i32 0, i32 0
  store ptr %1, ptr %10, align 8
  store ptr %0, ptr %7, align 8, !tbaa !227
  store i8 %2, ptr %8, align 1, !tbaa !76
  store ptr %3, ptr %9, align 8, !tbaa !165
  %11 = load ptr, ptr %7, align 8
  %12 = call noundef ptr @_ZNK8nanobind6handle3ptrEv(ptr noundef nonnull align 8 dereferenceable(8) %6) #13
  %13 = icmp eq ptr %12, @_Py_TrueStruct
  br i1 %13, label %14, label %16

14:                                               ; preds = %4
  %15 = getelementptr inbounds nuw %"struct.nanobind::detail::type_caster.59", ptr %11, i32 0, i32 0
  store i8 1, ptr %15, align 1, !tbaa !229
  store i1 true, ptr %5, align 1
  br label %22

16:                                               ; preds = %4
  %17 = call noundef ptr @_ZNK8nanobind6handle3ptrEv(ptr noundef nonnull align 8 dereferenceable(8) %6) #13
  %18 = icmp eq ptr %17, @_Py_FalseStruct
  br i1 %18, label %19, label %21

19:                                               ; preds = %16
  %20 = getelementptr inbounds nuw %"struct.nanobind::detail::type_caster.59", ptr %11, i32 0, i32 0
  store i8 0, ptr %20, align 1, !tbaa !229
  store i1 true, ptr %5, align 1
  br label %22

21:                                               ; preds = %16
  store i1 false, ptr %5, align 1
  br label %22

22:                                               ; preds = %21, %19, %14
  %23 = load i1, ptr %5, align 1
  ret i1 %23
}

; Function Attrs: alwaysinline mustprogress optsize uwtable
define internal noundef nonnull align 1 dereferenceable(1) ptr @_ZN8nanobind6detail5tupleIJNS0_11type_casterIZL29nanobind_init_test_typing_extRNS_7module_EE15CustomSignatureiEENS2_IbiEEEE3getILm1EEERDav(ptr noundef nonnull align 8 dereferenceable(16) %0) #3 align 2 {
  %2 = alloca ptr, align 8
  store ptr %0, ptr %2, align 8, !tbaa !223
  %3 = load ptr, ptr %2, align 8
  %4 = call noundef nonnull align 1 dereferenceable(1) ptr @_ZN8nanobind6detail5tupleIJNS0_11type_casterIbiEEEE3getILm0EEERDav(ptr noundef nonnull align 1 dereferenceable(1) %3) #13
  ret ptr %4
}

; Function Attrs: alwaysinline mustprogress nounwind optsize uwtable
define internal noundef zeroext i1 @_ZN8nanobind6detail16type_caster_baseIZL29nanobind_init_test_typing_extRNS_7module_EE15CustomSignatureE11from_pythonENS_6handleEhPNS0_12cleanup_listE(ptr noundef nonnull align 8 dereferenceable(8) %0, ptr %1, i8 noundef zeroext %2, ptr noundef %3) #5 align 2 {
  %5 = alloca %"class.nanobind::handle", align 8
  %6 = alloca ptr, align 8
  %7 = alloca i8, align 1
  %8 = alloca ptr, align 8
  %9 = getelementptr inbounds nuw %"class.nanobind::handle", ptr %5, i32 0, i32 0
  store ptr %1, ptr %9, align 8
  store ptr %0, ptr %6, align 8, !tbaa !225
  store i8 %2, ptr %7, align 1, !tbaa !76
  store ptr %3, ptr %8, align 8, !tbaa !165
  %10 = load ptr, ptr %6, align 8
  %11 = call noundef ptr @_ZNK8nanobind6handle3ptrEv(ptr noundef nonnull align 8 dereferenceable(8) %5) #13
  %12 = load i8, ptr %7, align 1, !tbaa !76
  %13 = load ptr, ptr %8, align 8, !tbaa !165
  %14 = getelementptr inbounds nuw %"struct.nanobind::detail::type_caster_base.61", ptr %10, i32 0, i32 0
  %15 = call noundef zeroext i1 @_ZN8nanobind6detail11nb_type_getEPKSt9type_infoP7_objecthPNS0_12cleanup_listEPPv(ptr noundef @_ZTIZL29nanobind_init_test_typing_extRN8nanobind7module_EE15CustomSignature, ptr noundef %11, i8 noundef zeroext %12, ptr noundef %13, ptr noundef %14) #15
  ret i1 %15
}

; Function Attrs: alwaysinline mustprogress nounwind optsize uwtable
define linkonce_odr hidden void @_ZN8nanobind6handleC2EPK7_object(ptr noundef nonnull align 8 dereferenceable(8) %0, ptr noundef %1) unnamed_addr #5 comdat align 2 {
  %3 = alloca ptr, align 8
  %4 = alloca ptr, align 8
  store ptr %0, ptr %3, align 8, !tbaa !12
  store ptr %1, ptr %4, align 8, !tbaa !3
  %5 = load ptr, ptr %3, align 8
  %6 = getelementptr inbounds nuw %"class.nanobind::handle", ptr %5, i32 0, i32 0
  %7 = load ptr, ptr %4, align 8, !tbaa !3
  store ptr %7, ptr %6, align 8, !tbaa !14
  ret void
}

; Function Attrs: alwaysinline mustprogress nounwind optsize uwtable
define internal noundef nonnull align 8 dereferenceable(8) ptr @_ZN8nanobind6detail5tupleIJNS0_11type_casterIZL29nanobind_init_test_typing_extRNS_7module_EE15CustomSignatureiEENS2_IbiEEEE3getILm0EEERDav(ptr noundef nonnull align 8 dereferenceable(16) %0) #5 align 2 {
  %2 = alloca ptr, align 8
  store ptr %0, ptr %2, align 8, !tbaa !223
  %3 = load ptr, ptr %2, align 8
  %4 = getelementptr inbounds nuw %"struct.nanobind::detail::tuple.57", ptr %3, i32 0, i32 1
  ret ptr %4
}

; Function Attrs: alwaysinline mustprogress optsize uwtable
define internal noundef ptr @"_ZZN8nanobind6detail11func_createILb0ELb1EZL29nanobind_init_test_typing_extRNS_7module_EE3$_4vJRZL29nanobind_init_test_typing_extS3_E15CustomSignaturebEJLm0ELm1EEJNS_5scopeENS_4nameENS_9is_methodENS_5arg_vEEEEP7_objectOT1_PFT2_DpT3_ESt16integer_sequenceImJXspT4_EEEDpRKT5_ENKUlPvPSC_PhNS_9rv_policyEPNS0_12cleanup_listEE_clESQ_SR_SS_ST_SV_"(ptr noundef nonnull align 1 dereferenceable(1) %0, ptr noundef %1, ptr noundef %2, ptr noundef %3, i32 noundef %4, ptr noundef %5) #3 align 2 {
  %7 = alloca ptr, align 8
  %8 = alloca ptr, align 8
  %9 = alloca ptr, align 8
  %10 = alloca ptr, align 8
  %11 = alloca ptr, align 8
  %12 = alloca i32, align 4
  %13 = alloca ptr, align 8
  %14 = alloca ptr, align 8
  %15 = alloca %"struct.nanobind::detail::tuple.57", align 8
  %16 = alloca %"class.nanobind::handle", align 8
  %17 = alloca %"class.nanobind::handle", align 8
  %18 = alloca i32, align 4
  %19 = alloca ptr, align 8
  store ptr %0, ptr %8, align 8, !tbaa !30
  store ptr %1, ptr %9, align 8, !tbaa !30
  store ptr %2, ptr %10, align 8, !tbaa !161
  store ptr %3, ptr %11, align 8, !tbaa !20
  store i32 %4, ptr %12, align 4, !tbaa !163
  store ptr %5, ptr %13, align 8, !tbaa !165
  call void @llvm.lifetime.start.p0(i64 8, ptr %14) #14
  %20 = load ptr, ptr %9, align 8, !tbaa !30
  store ptr %20, ptr %14, align 8, !tbaa !206
  call void @llvm.lifetime.start.p0(i64 16, ptr %15) #14
  %21 = call noundef nonnull align 8 dereferenceable(8) ptr @_ZN8nanobind6detail5tupleIJNS0_11type_casterIZL29nanobind_init_test_typing_extRNS_7module_EE15CustomSignatureiEENS2_IbiEEEE3getILm0EEERDav(ptr noundef nonnull align 8 dereferenceable(16) %15) #13
  %22 = load ptr, ptr %10, align 8, !tbaa !161
  %23 = getelementptr inbounds nuw ptr, ptr %22, i64 0
  %24 = load ptr, ptr %23, align 8, !tbaa !3
  call void @_ZN8nanobind6handleC2EPK7_object(ptr noundef nonnull align 8 dereferenceable(8) %16, ptr noundef %24) #13
  %25 = load ptr, ptr %11, align 8, !tbaa !20
  %26 = getelementptr inbounds nuw i8, ptr %25, i64 0
  %27 = load i8, ptr %26, align 1, !tbaa !76
  %28 = load ptr, ptr %13, align 8, !tbaa !165
  %29 = getelementptr inbounds nuw %"class.nanobind::handle", ptr %16, i32 0, i32 0
  %30 = load ptr, ptr %29, align 8
  %31 = call noundef zeroext i1 @_ZN8nanobind6detail16type_caster_baseIZL29nanobind_init_test_typing_extRNS_7module_EE15CustomSignatureE11from_pythonENS_6handleEhPNS0_12cleanup_listE(ptr noundef nonnull align 8 dereferenceable(8) %21, ptr %30, i8 noundef zeroext %27, ptr noundef %28) #15
  br i1 %31, label %32, label %44

32:                                               ; preds = %6
  %33 = call noundef nonnull align 1 dereferenceable(1) ptr @_ZN8nanobind6detail5tupleIJNS0_11type_casterIZL29nanobind_init_test_typing_extRNS_7module_EE15CustomSignatureiEENS2_IbiEEEE3getILm1EEERDav(ptr noundef nonnull align 8 dereferenceable(16) %15) #13
  %34 = load ptr, ptr %10, align 8, !tbaa !161
  %35 = getelementptr inbounds nuw ptr, ptr %34, i64 1
  %36 = load ptr, ptr %35, align 8, !tbaa !3
  call void @_ZN8nanobind6handleC2EPK7_object(ptr noundef nonnull align 8 dereferenceable(8) %17, ptr noundef %36) #13
  %37 = load ptr, ptr %11, align 8, !tbaa !20
  %38 = getelementptr inbounds nuw i8, ptr %37, i64 1
  %39 = load i8, ptr %38, align 1, !tbaa !76
  %40 = load ptr, ptr %13, align 8, !tbaa !165
  %41 = getelementptr inbounds nuw %"class.nanobind::handle", ptr %17, i32 0, i32 0
  %42 = load ptr, ptr %41, align 8
  %43 = call noundef zeroext i1 @_ZN8nanobind6detail11type_casterIbiE11from_pythonENS_6handleEhPNS0_12cleanup_listE(ptr noundef nonnull align 1 dereferenceable(1) %33, ptr %42, i8 noundef zeroext %39, ptr noundef %40) #15
  br i1 %43, label %45, label %44

44:                                               ; preds = %32, %6
  store ptr inttoptr (i64 1 to ptr), ptr %7, align 8
  store i32 1, ptr %18, align 4
  br label %55

45:                                               ; preds = %32
  call void @llvm.lifetime.start.p0(i64 8, ptr %19) #14
  %46 = load ptr, ptr %14, align 8, !tbaa !206
  %47 = call noundef nonnull align 8 dereferenceable(8) ptr @_ZN8nanobind6detail5tupleIJNS0_11type_casterIZL29nanobind_init_test_typing_extRNS_7module_EE15CustomSignatureiEENS2_IbiEEEE3getILm0EEERDav(ptr noundef nonnull align 8 dereferenceable(16) %15) #13
  %48 = call noundef nonnull align 4 dereferenceable(4) ptr @_ZN8nanobind6detail16type_caster_baseIZL29nanobind_init_test_typing_extRNS_7module_EE15CustomSignatureEcvRS4_Ev(ptr noundef nonnull align 8 dereferenceable(8) %47) #13
  %49 = call noundef nonnull align 1 dereferenceable(1) ptr @_ZN8nanobind6detail5tupleIJNS0_11type_casterIZL29nanobind_init_test_typing_extRNS_7module_EE15CustomSignatureiEENS2_IbiEEEE3getILm1EEERDav(ptr noundef nonnull align 8 dereferenceable(16) %15) #13
  %50 = call noundef nonnull align 1 dereferenceable(1) ptr @_ZN8nanobind6detail11type_casterIbiEcvObEv(ptr noundef nonnull align 1 dereferenceable(1) %49) #13
  %51 = load i8, ptr %50, align 1, !tbaa !18, !range !186, !noundef !187
  %52 = trunc i8 %51 to i1
  call void @"_ZZL29nanobind_init_test_typing_extRN8nanobind7module_EENK3$_4clERZL29nanobind_init_test_typing_extS1_E15CustomSignatureb"(ptr noundef nonnull align 1 dereferenceable(1) %46, ptr noundef nonnull align 4 dereferenceable(4) %48, i1 noundef zeroext %52) #13
  store ptr @_Py_NoneStruct, ptr %19, align 8, !tbaa !3
  %53 = load ptr, ptr %19, align 8, !tbaa !3
  call void @_ZL10_Py_INCREFP7_object(ptr noundef %53) #13
  %54 = load ptr, ptr %19, align 8, !tbaa !3
  store ptr %54, ptr %7, align 8
  store i32 1, ptr %18, align 4
  call void @llvm.lifetime.end.p0(i64 8, ptr %19) #14
  br label %55

55:                                               ; preds = %45, %44
  call void @llvm.lifetime.end.p0(i64 16, ptr %15) #14
  call void @llvm.lifetime.end.p0(i64 8, ptr %14) #14
  %56 = load ptr, ptr %7, align 8
  ret ptr %56
}

; Function Attrs: inlinehint mustprogress optsize uwtable
define internal noundef ptr @"_ZZN8nanobind6detail11func_createILb0ELb1EZL29nanobind_init_test_typing_extRNS_7module_EE3$_4vJRZL29nanobind_init_test_typing_extS3_E15CustomSignaturebEJLm0ELm1EEJNS_5scopeENS_4nameENS_9is_methodENS_5arg_vEEEEP7_objectOT1_PFT2_DpT3_ESt16integer_sequenceImJXspT4_EEEDpRKT5_ENUlPvPSC_PhNS_9rv_policyEPNS0_12cleanup_listEE_8__invokeESQ_SR_SS_ST_SV_"(ptr noundef %0, ptr noundef %1, ptr noundef %2, i32 noundef %3, ptr noundef %4) #9 align 2 {
  %6 = alloca ptr, align 8
  %7 = alloca ptr, align 8
  %8 = alloca ptr, align 8
  %9 = alloca i32, align 4
  %10 = alloca ptr, align 8
  %11 = alloca %class.anon.55, align 1
  store ptr %0, ptr %6, align 8, !tbaa !30
  store ptr %1, ptr %7, align 8, !tbaa !161
  store ptr %2, ptr %8, align 8, !tbaa !20
  store i32 %3, ptr %9, align 4, !tbaa !163
  store ptr %4, ptr %10, align 8, !tbaa !165
  %12 = load ptr, ptr %6, align 8, !tbaa !30
  %13 = load ptr, ptr %7, align 8, !tbaa !161
  %14 = load ptr, ptr %8, align 8, !tbaa !20
  %15 = load i32, ptr %9, align 4, !tbaa !163
  %16 = load ptr, ptr %10, align 8, !tbaa !165
  %17 = call noundef ptr @"_ZZN8nanobind6detail11func_createILb0ELb1EZL29nanobind_init_test_typing_extRNS_7module_EE3$_4vJRZL29nanobind_init_test_typing_extS3_E15CustomSignaturebEJLm0ELm1EEJNS_5scopeENS_4nameENS_9is_methodENS_5arg_vEEEEP7_objectOT1_PFT2_DpT3_ESt16integer_sequenceImJXspT4_EEEDpRKT5_ENKUlPvPSC_PhNS_9rv_policyEPNS0_12cleanup_listEE_clESQ_SR_SS_ST_SV_"(ptr noundef nonnull align 1 dereferenceable(1) %11, ptr noundef %12, ptr noundef %13, ptr noundef %14, i32 noundef %15, ptr noundef %16) #13
  ret ptr %17
}